(dp1
S'path_parscit'
p2
S'/Users/lwheng/Downloads/fyp/parscitxml'
p3
sS'path_pickles'
p4
S'/Users/lwheng/Downloads/fyp/Pickles'
p5
sS'path_parscit_section'
p6
S'/Users/lwheng/Downloads/fyp/parscitsectionxml'
p7
s.